; Function Attrs: nounwind sspstrong uwtable
define internal range(i64 0, 21) i64 @ossl_bn_is_prime(i32 noundef %0, ptr readnone captures(none) %1, i64 noundef %2) #0 {
  %or.cond.i = icmp ugt i32 %0, 1
  br i1 %or.cond.i, label %4, label %rb_check_arity.exit

4:                                                ; preds = %3
  tail call void @rb_error_arity(i32 noundef %0, i32 noundef 0, i32 noundef 1) #12
  unreachable

rb_check_arity.exit:                              ; preds = %3
  %5 = tail call ptr @rb_check_typeddata(i64 noundef %2, ptr noundef nonnull @ossl_bn_type) #11
  %.not = icmp eq ptr %5, null
  br i1 %.not, label %6, label %8

6:                                                ; preds = %rb_check_arity.exit
  %7 = load i64, ptr @rb_eRuntimeError, align 8, !tbaa !6
  tail call void (i64, ptr, ...) @ossl_raise(i64 noundef %7, ptr noundef nonnull @.str) #12
  unreachable

8:                                                ; preds = %rb_check_arity.exit
  %9 = load ptr, ptr @ossl_bn_ctx_key, align 8, !tbaa !16
  %10 = tail call ptr @rb_ractor_local_storage_ptr(ptr noundef %9) #11
  %.not.i = icmp eq ptr %10, null
  br i1 %.not.i, label %11, label %ossl_bn_ctx_get.exit

11:                                               ; preds = %8
  %12 = tail call ptr @BN_CTX_new() #11
  %.not5.i = icmp eq ptr %12, null
  br i1 %.not5.i, label %13, label %15

13:                                               ; preds = %11
  %14 = load i64, ptr @rb_eRuntimeError, align 8, !tbaa !6
  tail call void (i64, ptr, ...) @ossl_raise(i64 noundef %14, ptr noundef nonnull @.str.2) #12
  unreachable

15:                                               ; preds = %11
  %16 = load ptr, ptr @ossl_bn_ctx_key, align 8, !tbaa !16
  tail call void @rb_ractor_local_storage_ptr_set(ptr noundef %16, ptr noundef nonnull %12) #11
  br label %ossl_bn_ctx_get.exit

ossl_bn_ctx_get.exit:                             ; preds = %8, %15
  %.0.i = phi ptr [ %10, %8 ], [ %12, %15 ]
  %17 = tail call i32 @BN_check_prime(ptr noundef nonnull %5, ptr noundef nonnull %.0.i, ptr noundef null) #11
  %18 = icmp slt i32 %17, 0
  br i1 %18, label %19, label %21

19:                                               ; preds = %ossl_bn_ctx_get.exit
  %20 = load i64, ptr @eBNError, align 8, !tbaa !6
  tail call void (i64, ptr, ...) @ossl_raise(i64 noundef %20, ptr noundef nonnull @.str.75) #12
  unreachable

21:                                               ; preds = %ossl_bn_ctx_get.exit
  %.not6 = icmp eq i32 %17, 0
  %22 = select i1 %.not6, i64 0, i64 20
  ret i64 %22
}